; Function Attrs: mustprogress uwtable
define noundef range(i32 0, 2) i32 @_Z9tMPI_InitPiPPPcPFiiS1_E(ptr noundef %0, ptr noundef %1, ptr noundef %2) local_unnamed_addr #0 {
  %4 = alloca ptr, align 8
  %5 = load ptr, ptr @TMPI_COMM_WORLD, align 8, !tbaa !3
  %6 = icmp eq ptr %5, null
  br i1 %6, label %7, label %33

7:                                                ; preds = %3
  %.pre.i = load i32, ptr %0, align 4, !tbaa !46
  %8 = icmp sgt i32 %.pre.i, 1
  br i1 %8, label %.lr.ph.i, label %.loopexit.i

.lr.ph.i:                                         ; preds = %7
  %9 = load ptr, ptr %1, align 8, !tbaa !47
  %wide.trip.count.i = zext nneg i32 %.pre.i to i64
  br label %10

10:                                               ; preds = %15, %.lr.ph.i
  %indvars.iv.i = phi i64 [ 1, %.lr.ph.i ], [ %indvars.iv.next.i, %15 ]
  %11 = getelementptr inbounds nuw ptr, ptr %9, i64 %indvars.iv.i
  %12 = load ptr, ptr %11, align 8, !tbaa !48
  %13 = tail call i32 @strcmp(ptr noundef nonnull dereferenceable(4) @.str, ptr noundef nonnull dereferenceable(1) %12) #17
  %14 = icmp eq i32 %13, 0
  br i1 %14, label %.loopexit.loopexit.split.loop.exit34.i, label %15

15:                                               ; preds = %10
  %indvars.iv.next.i = add nuw nsw i64 %indvars.iv.i, 1
  %exitcond.not.i = icmp eq i64 %indvars.iv.next.i, %wide.trip.count.i
  br i1 %exitcond.not.i, label %.loopexit.loopexit.i, label %10, !llvm.loop !50

.loopexit.loopexit.split.loop.exit34.i:           ; preds = %10
  %16 = trunc nuw nsw i64 %indvars.iv.i to i32
  br label %.loopexit.loopexit.i

.loopexit.loopexit.i:                             ; preds = %15, %.loopexit.loopexit.split.loop.exit34.i
  %.0.ph.i = phi i32 [ %16, %.loopexit.loopexit.split.loop.exit34.i ], [ %.pre.i, %15 ]
  %17 = add nuw nsw i32 %.0.ph.i, 1
  br label %.loopexit.i

.loopexit.i:                                      ; preds = %.loopexit.loopexit.i, %7
  %.0.i = phi i32 [ 2, %7 ], [ %17, %.loopexit.loopexit.i ]
  %18 = icmp slt i32 %.0.i, %.pre.i
  br i1 %18, label %19, label %.thread.i

19:                                               ; preds = %.loopexit.i
  call void @llvm.lifetime.start.p0(i64 8, ptr nonnull %4) #18
  %20 = load ptr, ptr %1, align 8, !tbaa !47
  %21 = zext nneg i32 %.0.i to i64
  %22 = getelementptr inbounds nuw ptr, ptr %20, i64 %21
  %23 = load ptr, ptr %22, align 8, !tbaa !48
  %24 = call i64 @strtol(ptr noundef %23, ptr noundef nonnull %4, i32 noundef 10) #18
  %25 = trunc i64 %24 to i32
  %26 = load ptr, ptr %4, align 8, !tbaa !48
  %.not23.i = icmp eq ptr %26, null
  br i1 %.not23.i, label %.thread32.i, label %27

27:                                               ; preds = %19
  %28 = load i8, ptr %26, align 1, !tbaa !52
  %.not24.i = icmp eq i8 %28, 0
  br i1 %.not24.i, label %29, label %.thread32.i

.thread32.i:                                      ; preds = %27, %19
  call void @llvm.lifetime.end.p0(i64 8, ptr nonnull %4) #18
  br label %.thread.i

29:                                               ; preds = %27
  call void @llvm.lifetime.end.p0(i64 8, ptr nonnull %4) #18
  %30 = icmp slt i32 %25, 1
  br i1 %30, label %.thread.i, label %_Z10tMPI_Get_NPiPPPcPKcS_.exit

.thread.i:                                        ; preds = %29, %.thread32.i, %.loopexit.i
  %31 = tail call noundef i32 @_Z25tMPI_Thread_get_hw_numberv()
  %spec.store.select.i = tail call i32 @llvm.smax.i32(i32 %31, i32 1)
  br label %_Z10tMPI_Get_NPiPPPcPKcS_.exit

_Z10tMPI_Get_NPiPPPcPKcS_.exit:                   ; preds = %29, %.thread.i
  %.0 = phi i32 [ %spec.store.select.i, %.thread.i ], [ %25, %29 ]
  %32 = tail call fastcc noundef i32 @_ZL18tMPI_Start_threadsii22tMPI_Affinity_strategyPiPPPcPFvPKvES5_PFiiS2_E(i32 noundef 1, i32 noundef %.0, i32 noundef 1, ptr noundef nonnull %0, ptr noundef %1, ptr noundef null, ptr noundef null, ptr noundef %2)
  %.not = icmp eq i32 %32, 0
  br i1 %.not, label %33, label %34

33:                                               ; preds = %3, %_Z10tMPI_Get_NPiPPPcPKcS_.exit
  br label %34

34:                                               ; preds = %_Z10tMPI_Get_NPiPPPcPKcS_.exit, %33
  %.1 = phi i32 [ 0, %33 ], [ 1, %_Z10tMPI_Get_NPiPPPcPKcS_.exit ]
  ret i32 %.1
}